target datalayout = "e-m:e-p270:32:32-p271:32:32-p272:64:64-i64:64-i128:128-f80:128-n8:16:32:64-S128"
target triple = "x86_64-pc-linux-gnu"

%struct._packet_info = type { ptr, ptr, i32, i32, %struct.nstime_t, %struct.nstime_t, %struct.nstime_t, i8, ptr, ptr, ptr, ptr, %struct._address, %struct._address, %struct._address, %struct._address, %struct._address, %struct._address, i32, ptr, i8, [3 x i8], %struct.anon, i32, i32, i32, i32, ptr, i8, ptr, ptr, i16, i16, i32, i32, i16, i32, i32, ptr, ptr, ptr, i8, i8, i16, i16, i16, i32, i16, i16, ptr, ptr, ptr, ptr, ptr, i32, i32 }
%struct.nstime_t = type { i64, i32 }
%struct._address = type { i32, i32, ptr, ptr }
%struct.anon = type { i8, [3 x i8] }

@hf_marker = internal global i32 0, align 4
@hf_marker_segment = internal global i32 0, align 4
@hf_len = internal global i32 0, align 4
@hf_identifier = internal global i32 0, align 4
@hf_remain_seg_data = internal global i32 0, align 4
@hf_exif_flashpix_marker = internal global i32 0, align 4
@ett_marker_segment = internal global i32 0, align 4
@.str.399 = private unnamed_addr constant [14 x i8] c": %s (0x%04X)\00", align 1
@.str.403 = private unnamed_addr constant [9 x i8] c"%u bytes\00", align 1
@.str.404 = private unnamed_addr constant [22 x i8] c" (Unknown identifier)\00", align 1
@.str.418 = private unnamed_addr constant [5 x i8] c"FPXR\00", align 1

; Function Attrs: null_pointer_is_valid sspstrong uwtable
define internal void @process_app2_segment(ptr noundef %0, ptr noundef %1, ptr noundef %2, i32 noundef %3, i16 noundef zeroext %4, ptr noundef %5) #0 {
  %7 = alloca ptr, align 8
  %8 = alloca ptr, align 8
  %9 = alloca ptr, align 8
  %10 = alloca i32, align 4
  %11 = alloca i16, align 2
  %12 = alloca ptr, align 8
  %13 = alloca ptr, align 8
  %14 = alloca ptr, align 8
  %15 = alloca ptr, align 8
  %16 = alloca i32, align 4
  %17 = alloca i32, align 4
  store ptr %0, ptr %7, align 8
  store ptr %1, ptr %8, align 8
  store ptr %2, ptr %9, align 8
  store i32 %3, ptr %10, align 4
  store i16 %4, ptr %11, align 2
  store ptr %5, ptr %12, align 8
  call void @llvm.lifetime.start.p0(i64 8, ptr %13) #4
  call void @llvm.lifetime.start.p0(i64 8, ptr %14) #4
  call void @llvm.lifetime.start.p0(i64 8, ptr %15) #4
  call void @llvm.lifetime.start.p0(i64 4, ptr %16) #4
  %18 = load ptr, ptr %7, align 8
  %19 = icmp ne ptr %18, null
  br i1 %19, label %21, label %20

20:                                               ; preds = %6
  store i32 1, ptr %17, align 4
  br label %72

21:                                               ; preds = %6
  %22 = load ptr, ptr %7, align 8
  %23 = load i32, ptr @hf_marker_segment, align 4
  %24 = load ptr, ptr %8, align 8
  %25 = call ptr @proto_tree_add_item(ptr noundef %22, i32 noundef %23, ptr noundef %24, i32 noundef 0, i32 noundef -1, i32 noundef 0)
  store ptr %25, ptr %13, align 8
  %26 = load ptr, ptr %13, align 8
  %27 = load i32, ptr @ett_marker_segment, align 4
  %28 = call ptr @proto_item_add_subtree(ptr noundef %26, i32 noundef %27)
  store ptr %28, ptr %14, align 8
  %29 = load ptr, ptr %13, align 8
  %30 = load ptr, ptr %12, align 8
  %31 = load i16, ptr %11, align 2
  %32 = zext i16 %31 to i32
  call void (ptr, ptr, ...) @proto_item_append_text(ptr noundef %29, ptr noundef @.str.399, ptr noundef %30, i32 noundef %32)
  %33 = load ptr, ptr %14, align 8
  %34 = load i32, ptr @hf_marker, align 4
  %35 = load ptr, ptr %8, align 8
  %36 = call ptr @proto_tree_add_item(ptr noundef %33, i32 noundef %34, ptr noundef %35, i32 noundef 0, i32 noundef 2, i32 noundef 0)
  %37 = load ptr, ptr %14, align 8
  %38 = load i32, ptr @hf_len, align 4
  %39 = load ptr, ptr %8, align 8
  %40 = call ptr @proto_tree_add_item(ptr noundef %37, i32 noundef %38, ptr noundef %39, i32 noundef 2, i32 noundef 2, i32 noundef 0)
  %41 = load ptr, ptr %9, align 8
  %42 = getelementptr inbounds nuw %struct._packet_info, ptr %41, i32 0, i32 51
  %43 = load ptr, ptr %42, align 8
  %44 = load ptr, ptr %8, align 8
  %45 = call ptr @tvb_get_stringz_enc(ptr noundef %43, ptr noundef %44, i32 noundef 4, ptr noundef %16, i32 noundef 0)
  store ptr %45, ptr %15, align 8
  %46 = load ptr, ptr %14, align 8
  %47 = load i32, ptr @hf_identifier, align 4
  %48 = load ptr, ptr %8, align 8
  %49 = load i32, ptr %16, align 4
  %50 = call ptr @proto_tree_add_item(ptr noundef %46, i32 noundef %47, ptr noundef %48, i32 noundef 4, i32 noundef %49, i32 noundef 0)
  store ptr %50, ptr %13, align 8
  %51 = load ptr, ptr %15, align 8
  %52 = call i32 @strcmp(ptr noundef %51, ptr noundef @.str.418) #5
  %53 = icmp eq i32 %52, 0
  br i1 %53, label %54, label %59

54:                                               ; preds = %21
  %55 = load ptr, ptr %7, align 8
  %56 = load i32, ptr @hf_exif_flashpix_marker, align 4
  %57 = load ptr, ptr %8, align 8
  %58 = call ptr @proto_tree_add_item(ptr noundef %55, i32 noundef %56, ptr noundef %57, i32 noundef 0, i32 noundef -1, i32 noundef 0)
  br label %71

59:                                               ; preds = %21
  %60 = load ptr, ptr %14, align 8
  %61 = load i32, ptr @hf_remain_seg_data, align 4
  %62 = load ptr, ptr %8, align 8
  %63 = load i32, ptr %16, align 4
  %64 = add i32 4, %63
  %65 = load i32, ptr %10, align 4
  %66 = sub i32 %65, 2
  %67 = load i32, ptr %16, align 4
  %68 = sub i32 %66, %67
  %69 = call ptr (ptr, i32, ptr, i32, i32, ptr, ptr, ...) @proto_tree_add_bytes_format_value(ptr noundef %60, i32 noundef %61, ptr noundef %62, i32 noundef %64, i32 noundef -1, ptr noundef null, ptr noundef @.str.403, i32 noundef %68)
  %70 = load ptr, ptr %13, align 8
  call void (ptr, ptr, ...) @proto_item_append_text(ptr noundef %70, ptr noundef @.str.404)
  br label %71

71:                                               ; preds = %59, %54
  store i32 0, ptr %17, align 4
  br label %72

72:                                               ; preds = %71, %20
  call void @llvm.lifetime.end.p0(i64 4, ptr %16) #4
  call void @llvm.lifetime.end.p0(i64 8, ptr %15) #4
  call void @llvm.lifetime.end.p0(i64 8, ptr %14) #4
  call void @llvm.lifetime.end.p0(i64 8, ptr %13) #4
  %73 = load i32, ptr %17, align 4
  switch i32 %73, label %75 [
    i32 0, label %74
    i32 1, label %74
  ]

74:                                               ; preds = %72, %72
  ret void

75:                                               ; preds = %72
  unreachable
}