; Function Attrs: null_pointer_is_valid sspstrong uwtable
define internal fastcc void @process_app2_segment(ptr noundef %0, ptr noundef %1, ptr noundef readonly captures(none) %2, i32 noundef range(i32 0, 65536) %3, i16 noundef zeroext %4, ptr noundef nonnull %5) unnamed_addr #0 {
  %7 = alloca i32, align 4
  call void @llvm.lifetime.start.p0(i64 4, ptr nonnull %7) #5
  %.not = icmp eq ptr %0, null
  br i1 %.not, label %36, label %8

8:                                                ; preds = %6
  %9 = load i32, ptr @hf_marker_segment, align 4
  %10 = tail call ptr @proto_tree_add_item(ptr noundef nonnull %0, i32 noundef %9, ptr noundef %1, i32 noundef 0, i32 noundef -1, i32 noundef 0)
  %11 = load i32, ptr @ett_marker_segment, align 4
  %12 = tail call ptr @proto_item_add_subtree(ptr noundef %10, i32 noundef %11)
  %13 = zext i16 %4 to i32
  tail call void (ptr, ptr, ...) @proto_item_append_text(ptr noundef %10, ptr noundef nonnull @.str.399, ptr noundef nonnull %5, i32 noundef %13)
  %14 = load i32, ptr @hf_marker, align 4
  %15 = tail call ptr @proto_tree_add_item(ptr noundef %12, i32 noundef %14, ptr noundef %1, i32 noundef 0, i32 noundef 2, i32 noundef 0)
  %16 = load i32, ptr @hf_len, align 4
  %17 = tail call ptr @proto_tree_add_item(ptr noundef %12, i32 noundef %16, ptr noundef %1, i32 noundef 2, i32 noundef 2, i32 noundef 0)
  %18 = getelementptr inbounds nuw i8, ptr %2, i64 408
  %19 = load ptr, ptr %18, align 8
  %20 = call ptr @tvb_get_stringz_enc(ptr noundef %19, ptr noundef %1, i32 noundef 4, ptr noundef nonnull %7, i32 noundef 0)
  %21 = load i32, ptr @hf_identifier, align 4
  %22 = load i32, ptr %7, align 4
  %23 = call ptr @proto_tree_add_item(ptr noundef %12, i32 noundef %21, ptr noundef %1, i32 noundef 4, i32 noundef %22, i32 noundef 0)
  %24 = call i32 @strcmp(ptr noundef %20, ptr noundef nonnull dereferenceable(5) @.str.418) #6
  %25 = icmp eq i32 %24, 0
  br i1 %25, label %26, label %29

26:                                               ; preds = %8
  %27 = load i32, ptr @hf_exif_flashpix_marker, align 4
  %28 = call ptr @proto_tree_add_item(ptr noundef nonnull %0, i32 noundef %27, ptr noundef %1, i32 noundef 0, i32 noundef -1, i32 noundef 0)
  br label %36

29:                                               ; preds = %8
  %30 = load i32, ptr @hf_remain_seg_data, align 4
  %31 = load i32, ptr %7, align 4
  %32 = add i32 %31, 4
  %33 = add nsw i32 %3, -2
  %34 = sub i32 %33, %31
  %35 = call ptr (ptr, i32, ptr, i32, i32, ptr, ptr, ...) @proto_tree_add_bytes_format_value(ptr noundef %12, i32 noundef %30, ptr noundef %1, i32 noundef %32, i32 noundef -1, ptr noundef null, ptr noundef nonnull @.str.403, i32 noundef %34)
  call void (ptr, ptr, ...) @proto_item_append_text(ptr noundef %23, ptr noundef nonnull @.str.404)
  br label %36

36:                                               ; preds = %26, %29, %6
  call void @llvm.lifetime.end.p0(i64 4, ptr nonnull %7) #5
  ret void
}